target datalayout = "e-m:e-p270:32:32-p271:32:32-p272:64:64-i64:64-i128:128-f80:128-n8:16:32:64-S128"
target triple = "x86_64-pc-linux-gnu"

@.str = private unnamed_addr constant [3 x i8] c"\0D\0A\00", align 1
@.str.1 = private unnamed_addr constant [29 x i8] c"Expected \\r\\n, got: %02x%02x\00", align 1
@error = internal global [1044 x i8] zeroinitializer, align 16
@.str.2 = private unnamed_addr constant [13 x i8] c"0x%16llx: %s\00", align 1
@epos = internal global i64 0, align 8
@line = internal global i64 1, align 8

; Function Attrs: nounwind uwtable
define dso_local i32 @consumeNewline(ptr noundef %0) #0 {
  %2 = alloca i32, align 4
  %3 = alloca ptr, align 8
  %4 = alloca [1024 x i8], align 16
  store ptr %0, ptr %3, align 8, !tbaa !5
  %5 = load ptr, ptr %3, align 8, !tbaa !5
  %6 = call i32 @strncmp(ptr noundef %5, ptr noundef @.str, i64 noundef 2) #9
  %7 = icmp ne i32 %6, 0
  br i1 %7, label %8, label %22

8:                                                ; preds = %1
  call void @llvm.lifetime.start.p0(i64 1024, ptr %4) #10
  %9 = getelementptr inbounds [1024 x i8], ptr %4, i64 0, i64 0
  %10 = load ptr, ptr %3, align 8, !tbaa !5
  %11 = getelementptr inbounds i8, ptr %10, i64 0
  %12 = load i8, ptr %11, align 1, !tbaa !10
  %13 = sext i8 %12 to i32
  %14 = load ptr, ptr %3, align 8, !tbaa !5
  %15 = getelementptr inbounds i8, ptr %14, i64 1
  %16 = load i8, ptr %15, align 1, !tbaa !10
  %17 = sext i8 %16 to i32
  %18 = call i32 (ptr, i64, ptr, ...) @snprintf(ptr noundef %9, i64 noundef 1024, ptr noundef @.str.1, i32 noundef %13, i32 noundef %17) #10
  %19 = load i64, ptr @epos, align 8, !tbaa !11
  %20 = getelementptr inbounds [1024 x i8], ptr %4, i64 0, i64 0
  %21 = call i32 (ptr, i64, ptr, ...) @snprintf(ptr noundef @error, i64 noundef 1044, ptr noundef @.str.2, i64 noundef %19, ptr noundef %20) #10
  call void @llvm.lifetime.end.p0(i64 1024, ptr %4) #10
  store i32 0, ptr %2, align 4
  br label %25

22:                                               ; preds = %1
  %23 = load i64, ptr @line, align 8, !tbaa !13
  %24 = add nsw i64 %23, 1
  store i64 %24, ptr @line, align 8, !tbaa !13
  store i32 1, ptr %2, align 4
  br label %25

25:                                               ; preds = %22, %8
  %26 = load i32, ptr %2, align 4
  ret i32 %26
}