; Function Attrs: nofree nounwind uwtable
define dso_local range(i32 0, 2) i32 @consumeNewline(ptr noundef readonly captures(none) %0) local_unnamed_addr #0 {
sub_0:
  %1 = alloca [1024 x i8], align 16
  %2 = load i8, ptr %0, align 1
  %.not3 = icmp eq i8 %2, 13
  br i1 %.not3, label %.tail, label %.tail.thread

.tail:                                            ; preds = %sub_0
  %3 = getelementptr inbounds nuw i8, ptr %0, i64 1
  %4 = load i8, ptr %3, align 1
  %5 = icmp eq i8 %4, 10
  br i1 %5, label %13, label %.tail.thread

.tail.thread:                                     ; preds = %sub_0, %.tail
  call void @llvm.lifetime.start.p0(i64 1024, ptr nonnull %1) #16
  %6 = sext i8 %2 to i32
  %7 = getelementptr inbounds nuw i8, ptr %0, i64 1
  %8 = load i8, ptr %7, align 1, !tbaa !5
  %9 = sext i8 %8 to i32
  %10 = call i32 (ptr, i64, ptr, ...) @snprintf(ptr noundef nonnull dereferenceable(1) %1, i64 noundef 1024, ptr noundef nonnull @.str.1, i32 noundef %6, i32 noundef %9) #16
  %11 = load i64, ptr @epos, align 8, !tbaa !8
  %12 = call i32 (ptr, i64, ptr, ...) @snprintf(ptr noundef nonnull dereferenceable(1) @error, i64 noundef 1044, ptr noundef nonnull @.str.2, i64 noundef %11, ptr noundef nonnull %1) #16
  call void @llvm.lifetime.end.p0(i64 1024, ptr nonnull %1) #16
  br label %16

13:                                               ; preds = %.tail
  %14 = load i64, ptr @line, align 8, !tbaa !10
  %15 = add nsw i64 %14, 1
  store i64 %15, ptr @line, align 8, !tbaa !10
  br label %16

16:                                               ; preds = %13, %.tail.thread
  %.0 = phi i32 [ 0, %.tail.thread ], [ 1, %13 ]
  ret i32 %.0
}